; Function Attrs: nounwind uwtable
define ptr @l_Lean_SMap_find_x21___rarg(ptr noundef %0, ptr noundef %1, ptr noundef %2, ptr noundef %3, ptr noundef %4) #0 {
  %6 = tail call ptr @l_Lean_SMap_find_x3f___rarg(ptr noundef %0, ptr noundef %1, ptr noundef %3, ptr noundef %4)
  %7 = ptrtoint ptr %6 to i64
  %8 = and i64 %7, 1
  %.not.i17 = icmp eq i64 %8, 0
  br i1 %.not.i17, label %12, label %9

9:                                                ; preds = %5
  %10 = lshr i64 %7, 1
  %11 = trunc i64 %10 to i32
  br label %lean_obj_tag.exit

12:                                               ; preds = %5
  %13 = getelementptr i8, ptr %6, i64 4
  %.val.i = load i32, ptr %13, align 4
  %14 = lshr i32 %.val.i, 24
  br label %lean_obj_tag.exit

lean_obj_tag.exit:                                ; preds = %9, %12
  %.0.i = phi i32 [ %11, %9 ], [ %14, %12 ]
  %15 = icmp eq i32 %.0.i, 0
  br i1 %15, label %16, label %19

16:                                               ; preds = %lean_obj_tag.exit
  %17 = load ptr, ptr @l_Lean_SMap_find_x21___rarg___closed__4, align 8, !tbaa !4
  %18 = tail call ptr @l_panic___rarg(ptr noundef %2, ptr noundef %17) #3
  br label %lean_dec.exit

19:                                               ; preds = %lean_obj_tag.exit
  %20 = ptrtoint ptr %2 to i64
  %21 = and i64 %20, 1
  %.not = icmp eq i64 %21, 0
  br i1 %.not, label %22, label %lean_dec.exit14

22:                                               ; preds = %19
  %23 = load i32, ptr %2, align 4, !tbaa !10
  %24 = icmp sgt i32 %23, 1
  br i1 %24, label %25, label %27, !prof !15

25:                                               ; preds = %22
  %26 = add nsw i32 %23, -1
  store i32 %26, ptr %2, align 4, !tbaa !10
  br label %lean_dec.exit14

27:                                               ; preds = %22
  %.not.i = icmp eq i32 %23, 0
  br i1 %.not.i, label %lean_dec.exit14, label %28

28:                                               ; preds = %27
  tail call void @lean_dec_ref_cold(ptr noundef nonnull %2) #3
  br label %lean_dec.exit14

lean_dec.exit14:                                  ; preds = %28, %27, %25, %19
  %29 = getelementptr inbounds nuw i8, ptr %6, i64 8
  %30 = load ptr, ptr %29, align 8, !tbaa !4
  %31 = ptrtoint ptr %30 to i64
  %32 = and i64 %31, 1
  %.not20 = icmp eq i64 %32, 0
  br i1 %.not20, label %33, label %lean_inc.exit

33:                                               ; preds = %lean_dec.exit14
  %.val.i18 = load i32, ptr %30, align 4, !tbaa !10
  %34 = icmp sgt i32 %.val.i18, 0
  br i1 %34, label %35, label %37, !prof !15

35:                                               ; preds = %33
  %36 = add nuw i32 %.val.i18, 1
  store i32 %36, ptr %30, align 4, !tbaa !10
  br label %lean_inc.exit

37:                                               ; preds = %33
  %.not.i19 = icmp eq i32 %.val.i18, 0
  br i1 %.not.i19, label %lean_inc.exit, label %38

38:                                               ; preds = %37
  tail call void @lean_inc_ref_cold(ptr noundef nonnull %30) #3
  br label %lean_inc.exit

lean_inc.exit:                                    ; preds = %38, %37, %35, %lean_dec.exit14
  br i1 %.not.i17, label %39, label %lean_dec.exit

39:                                               ; preds = %lean_inc.exit
  %40 = load i32, ptr %6, align 4, !tbaa !10
  %41 = icmp sgt i32 %40, 1
  br i1 %41, label %42, label %44, !prof !15

42:                                               ; preds = %39
  %43 = add nsw i32 %40, -1
  store i32 %43, ptr %6, align 4, !tbaa !10
  br label %lean_dec.exit

44:                                               ; preds = %39
  %.not.i15 = icmp eq i32 %40, 0
  br i1 %.not.i15, label %lean_dec.exit, label %45

45:                                               ; preds = %44
  tail call void @lean_dec_ref_cold(ptr noundef nonnull %6) #3
  br label %lean_dec.exit

lean_dec.exit:                                    ; preds = %lean_inc.exit, %42, %44, %45, %16
  %.0 = phi ptr [ %18, %16 ], [ %30, %45 ], [ %30, %44 ], [ %30, %42 ], [ %30, %lean_inc.exit ]
  ret ptr %.0
}